
Practice Enterprise 2.elf:     file format elf32-avr

Sections:
Idx Name          Size      VMA       LMA       File off  Algn
  0 .data         000000c8  00800100  0000070e  000007a2  2**0
                  CONTENTS, ALLOC, LOAD, DATA
  1 .text         0000070e  00000000  00000000  00000094  2**1
                  CONTENTS, ALLOC, LOAD, READONLY, CODE
  2 .bss          00000020  008001c8  008001c8  0000086a  2**0
                  ALLOC
  3 .comment      00000030  00000000  00000000  0000086a  2**0
                  CONTENTS, READONLY
  4 .note.gnu.avr.deviceinfo 0000003c  00000000  00000000  0000089c  2**2
                  CONTENTS, READONLY
  5 .debug_aranges 00000180  00000000  00000000  000008d8  2**0
                  CONTENTS, READONLY, DEBUGGING
  6 .debug_info   00001c6e  00000000  00000000  00000a58  2**0
                  CONTENTS, READONLY, DEBUGGING
  7 .debug_abbrev 00000c20  00000000  00000000  000026c6  2**0
                  CONTENTS, READONLY, DEBUGGING
  8 .debug_line   00000de7  00000000  00000000  000032e6  2**0
                  CONTENTS, READONLY, DEBUGGING
  9 .debug_frame  00000308  00000000  00000000  000040d0  2**2
                  CONTENTS, READONLY, DEBUGGING
 10 .debug_str    0000073a  00000000  00000000  000043d8  2**0
                  CONTENTS, READONLY, DEBUGGING
 11 .debug_loc    00000d54  00000000  00000000  00004b12  2**0
                  CONTENTS, READONLY, DEBUGGING
 12 .debug_ranges 00000130  00000000  00000000  00005866  2**0
                  CONTENTS, READONLY, DEBUGGING

Disassembly of section .text:

00000000 <__vectors>:
   0:	19 c0       	rjmp	.+50     	; 0x34 <__ctors_end>
   2:	33 c0       	rjmp	.+102    	; 0x6a <__bad_interrupt>
   4:	32 c0       	rjmp	.+100    	; 0x6a <__bad_interrupt>
   6:	31 c0       	rjmp	.+98     	; 0x6a <__bad_interrupt>
   8:	30 c0       	rjmp	.+96     	; 0x6a <__bad_interrupt>
   a:	2f c0       	rjmp	.+94     	; 0x6a <__bad_interrupt>
   c:	2e c0       	rjmp	.+92     	; 0x6a <__bad_interrupt>
   e:	2d c0       	rjmp	.+90     	; 0x6a <__bad_interrupt>
  10:	2c c0       	rjmp	.+88     	; 0x6a <__bad_interrupt>
  12:	0f c3       	rjmp	.+1566   	; 0x632 <__vector_9>
  14:	2a c0       	rjmp	.+84     	; 0x6a <__bad_interrupt>
  16:	29 c0       	rjmp	.+82     	; 0x6a <__bad_interrupt>
  18:	28 c0       	rjmp	.+80     	; 0x6a <__bad_interrupt>
  1a:	27 c0       	rjmp	.+78     	; 0x6a <__bad_interrupt>
  1c:	26 c0       	rjmp	.+76     	; 0x6a <__bad_interrupt>
  1e:	25 c0       	rjmp	.+74     	; 0x6a <__bad_interrupt>
  20:	24 c0       	rjmp	.+72     	; 0x6a <__bad_interrupt>
  22:	23 c0       	rjmp	.+70     	; 0x6a <__bad_interrupt>
  24:	22 c0       	rjmp	.+68     	; 0x6a <__bad_interrupt>
  26:	21 c0       	rjmp	.+66     	; 0x6a <__bad_interrupt>
  28:	20 c0       	rjmp	.+64     	; 0x6a <__bad_interrupt>
  2a:	1f c0       	rjmp	.+62     	; 0x6a <__bad_interrupt>
  2c:	1e c0       	rjmp	.+60     	; 0x6a <__bad_interrupt>
  2e:	1d c0       	rjmp	.+58     	; 0x6a <__bad_interrupt>
  30:	1c c0       	rjmp	.+56     	; 0x6a <__bad_interrupt>
  32:	1b c0       	rjmp	.+54     	; 0x6a <__bad_interrupt>

00000034 <__ctors_end>:
  34:	11 24       	eor	r1, r1
  36:	1f be       	out	0x3f, r1	; 63
  38:	cf ef       	ldi	r28, 0xFF	; 255
  3a:	d2 e0       	ldi	r29, 0x02	; 2
  3c:	de bf       	out	0x3e, r29	; 62
  3e:	cd bf       	out	0x3d, r28	; 61

00000040 <__do_copy_data>:
  40:	11 e0       	ldi	r17, 0x01	; 1
  42:	a0 e0       	ldi	r26, 0x00	; 0
  44:	b1 e0       	ldi	r27, 0x01	; 1
  46:	ee e0       	ldi	r30, 0x0E	; 14
  48:	f7 e0       	ldi	r31, 0x07	; 7
  4a:	02 c0       	rjmp	.+4      	; 0x50 <__do_copy_data+0x10>
  4c:	05 90       	lpm	r0, Z+
  4e:	0d 92       	st	X+, r0
  50:	a8 3c       	cpi	r26, 0xC8	; 200
  52:	b1 07       	cpc	r27, r17
  54:	d9 f7       	brne	.-10     	; 0x4c <__do_copy_data+0xc>

00000056 <__do_clear_bss>:
  56:	21 e0       	ldi	r18, 0x01	; 1
  58:	a8 ec       	ldi	r26, 0xC8	; 200
  5a:	b1 e0       	ldi	r27, 0x01	; 1
  5c:	01 c0       	rjmp	.+2      	; 0x60 <.do_clear_bss_start>

0000005e <.do_clear_bss_loop>:
  5e:	1d 92       	st	X+, r1

00000060 <.do_clear_bss_start>:
  60:	a8 3e       	cpi	r26, 0xE8	; 232
  62:	b2 07       	cpc	r27, r18
  64:	e1 f7       	brne	.-8      	; 0x5e <.do_clear_bss_loop>
  66:	7c d2       	rcall	.+1272   	; 0x560 <main>
  68:	50 c3       	rjmp	.+1696   	; 0x70a <_exit>

0000006a <__bad_interrupt>:
  6a:	ca cf       	rjmp	.-108    	; 0x0 <__vectors>

0000006c <setRS>:
	sendByteByNibble(RETURN_HOME);	// return home
	_delay_ms(2);	//>1.67ms
}

void setRS(void){
	PORTC |= 0b01000000;
  6c:	8a b1       	in	r24, 0x0a	; 10
  6e:	80 64       	ori	r24, 0x40	; 64
  70:	8a b9       	out	0x0a, r24	; 10
  72:	08 95       	ret

00000074 <clearRS>:
}

void clearRS(void){
	PORTC &= 0b10111111;
  74:	8a b1       	in	r24, 0x0a	; 10
  76:	8f 7b       	andi	r24, 0xBF	; 191
  78:	8a b9       	out	0x0a, r24	; 10
  7a:	08 95       	ret

0000007c <setEnable>:
}

void setEnable(void){
	PORTC |= 0b10000000;
  7c:	8a b1       	in	r24, 0x0a	; 10
  7e:	80 68       	ori	r24, 0x80	; 128
  80:	8a b9       	out	0x0a, r24	; 10
  82:	08 95       	ret

00000084 <clearEnable>:
}

void clearEnable(void){
	PORTC &= 0b01111111;
  84:	8a b1       	in	r24, 0x0a	; 10
  86:	8f 77       	andi	r24, 0x7F	; 127
  88:	8a b9       	out	0x0a, r24	; 10
  8a:	08 95       	ret

0000008c <sendByteByNibble>:
	
	clearLCD();
	cursorHome();
}

void sendByteByNibble(char data){
  8c:	cf 93       	push	r28
	uint8_t leftNibble = 0x00;
	uint8_t rightNibble = 0x00;
	uint8_t mask = 0b11110000;
	
	//X to blok
	if(data == 0b01011001){		//data == Y ?
  8e:	89 35       	cpi	r24, 0x59	; 89
  90:	31 f0       	breq	.+12     	; 0x9e <sendByteByNibble+0x12>
		rightNibble = 0xFF;
	}
	else{
		input = (uint8_t)data;
		
		leftNibble = (input & mask);
  92:	98 2f       	mov	r25, r24
  94:	90 7f       	andi	r25, 0xF0	; 240
		
		input = (((uint8_t)data) << 4);
  96:	c8 2f       	mov	r28, r24
  98:	c2 95       	swap	r28
  9a:	c0 7f       	andi	r28, 0xF0	; 240
  9c:	02 c0       	rjmp	.+4      	; 0xa2 <sendByteByNibble+0x16>
	uint8_t mask = 0b11110000;
	
	//X to blok
	if(data == 0b01011001){		//data == Y ?
		leftNibble = 0xFF;
		rightNibble = 0xFF;
  9e:	cf ef       	ldi	r28, 0xFF	; 255
	uint8_t rightNibble = 0x00;
	uint8_t mask = 0b11110000;
	
	//X to blok
	if(data == 0b01011001){		//data == Y ?
		leftNibble = 0xFF;
  a0:	9f ef       	ldi	r25, 0xFF	; 255
		input = (((uint8_t)data) << 4);
		rightNibble = (input & mask);
	}
	
	//data send
	PORTA = leftNibble;
  a2:	92 b9       	out	0x02, r25	; 2
	
	//pulse
	setEnable();
  a4:	eb df       	rcall	.-42     	; 0x7c <setEnable>
	#else
		//round up by default
		__ticks_dc = (uint32_t)(ceil(fabs(__tmp)));
	#endif

	__builtin_avr_delay_cycles(__ticks_dc);
  a6:	85 e8       	ldi	r24, 0x85	; 133
  a8:	8a 95       	dec	r24
  aa:	f1 f7       	brne	.-4      	; 0xa8 <sendByteByNibble+0x1c>
  ac:	00 00       	nop
	_delay_us(50);
	clearEnable();
  ae:	ea df       	rcall	.-44     	; 0x84 <clearEnable>
  b0:	85 e8       	ldi	r24, 0x85	; 133
  b2:	8a 95       	dec	r24
  b4:	f1 f7       	brne	.-4      	; 0xb2 <sendByteByNibble+0x26>
  b6:	00 00       	nop
	_delay_us(50);
	
	//data send
	PORTA = rightNibble;
  b8:	c2 b9       	out	0x02, r28	; 2
	
	//pulse
	setEnable();
  ba:	e0 df       	rcall	.-64     	; 0x7c <setEnable>
  bc:	85 e8       	ldi	r24, 0x85	; 133
  be:	8a 95       	dec	r24
  c0:	f1 f7       	brne	.-4      	; 0xbe <sendByteByNibble+0x32>
  c2:	00 00       	nop
	_delay_us(50);
	clearEnable();
  c4:	df df       	rcall	.-66     	; 0x84 <clearEnable>
  c6:	85 e8       	ldi	r24, 0x85	; 133
  c8:	8a 95       	dec	r24
  ca:	f1 f7       	brne	.-4      	; 0xc8 <sendByteByNibble+0x3c>
  cc:	00 00       	nop
	_delay_us(50);
	
	//default position
	clearEnable();
  ce:	da df       	rcall	.-76     	; 0x84 <clearEnable>
	clearRS();
  d0:	d1 df       	rcall	.-94     	; 0x74 <clearRS>
	PORTA = 0x00;
  d2:	12 b8       	out	0x02, r1	; 2
}
  d4:	cf 91       	pop	r28
  d6:	08 95       	ret

000000d8 <clearLCD>:

void clearLCD(void){
	sendByteByNibble(CLEAR_DISPLAY);	// clear display
  d8:	81 e0       	ldi	r24, 0x01	; 1
  da:	d8 df       	rcall	.-80     	; 0x8c <sendByteByNibble>
	#else
		//round up by default
		__ticks_dc = (uint32_t)(ceil(fabs(__tmp)));
	#endif

	__builtin_avr_delay_cycles(__ticks_dc);
  dc:	8f e9       	ldi	r24, 0x9F	; 159
  de:	9f e0       	ldi	r25, 0x0F	; 15
  e0:	01 97       	sbiw	r24, 0x01	; 1
  e2:	f1 f7       	brne	.-4      	; 0xe0 <clearLCD+0x8>
  e4:	00 c0       	rjmp	.+0      	; 0xe6 <clearLCD+0xe>
  e6:	00 00       	nop
  e8:	08 95       	ret

000000ea <cursorHome>:
	_delay_ms(2);	//>1.67ms
}

void cursorHome(void){
	sendByteByNibble(RETURN_HOME);	// return home
  ea:	82 e0       	ldi	r24, 0x02	; 2
  ec:	cf df       	rcall	.-98     	; 0x8c <sendByteByNibble>
  ee:	8f e9       	ldi	r24, 0x9F	; 159
  f0:	9f e0       	ldi	r25, 0x0F	; 15
  f2:	01 97       	sbiw	r24, 0x01	; 1
  f4:	f1 f7       	brne	.-4      	; 0xf2 <cursorHome+0x8>
  f6:	00 c0       	rjmp	.+0      	; 0xf8 <cursorHome+0xe>
  f8:	00 00       	nop
  fa:	08 95       	ret

000000fc <writeToDisplay>:
	
	writeToDisplay(inpStrText, strlen(inpStrText), 0x94);
	writeToDisplay(muxStr, strlen(muxStr), 0xd4);
}

void writeToDisplay(char data[], uint8_t length, uint8_t DDRAMaddress){
  fc:	ef 92       	push	r14
  fe:	ff 92       	push	r15
 100:	0f 93       	push	r16
 102:	1f 93       	push	r17
 104:	cf 93       	push	r28
 106:	df 93       	push	r29
 108:	7c 01       	movw	r14, r24
 10a:	06 2f       	mov	r16, r22
 10c:	14 2f       	mov	r17, r20
	uint8_t addressF = DDRAMaddress;
	
	cursorHome();
 10e:	ed df       	rcall	.-38     	; 0xea <cursorHome>
	
	for(int i = 0; i < length;i++){
 110:	c0 e0       	ldi	r28, 0x00	; 0
 112:	d0 e0       	ldi	r29, 0x00	; 0
 114:	0f c0       	rjmp	.+30     	; 0x134 <__EEPROM_REGION_LENGTH__+0x34>
		sendByteByNibble(addressF);
 116:	81 2f       	mov	r24, r17
 118:	b9 df       	rcall	.-142    	; 0x8c <sendByteByNibble>
	#else
		//round up by default
		__ticks_dc = (uint32_t)(ceil(fabs(__tmp)));
	#endif

	__builtin_avr_delay_cycles(__ticks_dc);
 11a:	85 e0       	ldi	r24, 0x05	; 5
 11c:	8a 95       	dec	r24
 11e:	f1 f7       	brne	.-4      	; 0x11c <__EEPROM_REGION_LENGTH__+0x1c>
 120:	00 00       	nop
		_delay_us(2);
		
		setRS();
 122:	a4 df       	rcall	.-184    	; 0x6c <setRS>
		sendByteByNibble(data[i]);
 124:	f7 01       	movw	r30, r14
 126:	ec 0f       	add	r30, r28
 128:	fd 1f       	adc	r31, r29
 12a:	80 81       	ld	r24, Z
 12c:	af df       	rcall	.-162    	; 0x8c <sendByteByNibble>
		clearRS();
 12e:	a2 df       	rcall	.-188    	; 0x74 <clearRS>
		
		addressF++;
 130:	1f 5f       	subi	r17, 0xFF	; 255
void writeToDisplay(char data[], uint8_t length, uint8_t DDRAMaddress){
	uint8_t addressF = DDRAMaddress;
	
	cursorHome();
	
	for(int i = 0; i < length;i++){
 132:	21 96       	adiw	r28, 0x01	; 1
 134:	80 2f       	mov	r24, r16
 136:	90 e0       	ldi	r25, 0x00	; 0
 138:	c8 17       	cp	r28, r24
 13a:	d9 07       	cpc	r29, r25
 13c:	64 f3       	brlt	.-40     	; 0x116 <__EEPROM_REGION_LENGTH__+0x16>
		sendByteByNibble(data[i]);
		clearRS();
		
		addressF++;
	}
}
 13e:	df 91       	pop	r29
 140:	cf 91       	pop	r28
 142:	1f 91       	pop	r17
 144:	0f 91       	pop	r16
 146:	ff 90       	pop	r15
 148:	ef 90       	pop	r14
 14a:	08 95       	ret

0000014c <updateDisplay>:
	_delay_ms(2);	//>1.67ms
	
	clearLCD();
}

void updateDisplay(uint8_t displayValueF, uint8_t mux){
 14c:	46 2f       	mov	r20, r22
	//2 ??????_______________	address: 0xc0
	//3 INPUT:					address: 0x94
	//4 [] [] [?] []			address: 0xd4

	// volume string
	bars = displayValueF / 12; // 0 - 255 => 0 - 20 => / 12.75 ~ 12
 14e:	6c e0       	ldi	r22, 0x0C	; 12
 150:	d0 d2       	rcall	.+1440   	; 0x6f2 <__udivmodqi4>
 152:	80 93 ca 01 	sts	0x01CA, r24	; 0x8001ca <bars>
	blanks = 20 - bars;
 156:	94 e1       	ldi	r25, 0x14	; 20
 158:	98 1b       	sub	r25, r24
 15a:	90 93 c9 01 	sts	0x01C9, r25	; 0x8001c9 <blanks>
	
	//assemble string
	strcpy(barStr, "");
 15e:	10 92 d2 01 	sts	0x01D2, r1	; 0x8001d2 <barStr>
	for(uint8_t i = 0; i < bars; i++){
 162:	80 e0       	ldi	r24, 0x00	; 0
 164:	0b c0       	rjmp	.+22     	; 0x17c <updateDisplay+0x30>
		strcat(barStr, "Y");
 166:	e2 ed       	ldi	r30, 0xD2	; 210
 168:	f1 e0       	ldi	r31, 0x01	; 1
 16a:	01 90       	ld	r0, Z+
 16c:	00 20       	and	r0, r0
 16e:	e9 f7       	brne	.-6      	; 0x16a <updateDisplay+0x1e>
 170:	31 97       	sbiw	r30, 0x01	; 1
 172:	29 e5       	ldi	r18, 0x59	; 89
 174:	30 e0       	ldi	r19, 0x00	; 0
 176:	31 83       	std	Z+1, r19	; 0x01
 178:	20 83       	st	Z, r18
	bars = displayValueF / 12; // 0 - 255 => 0 - 20 => / 12.75 ~ 12
	blanks = 20 - bars;
	
	//assemble string
	strcpy(barStr, "");
	for(uint8_t i = 0; i < bars; i++){
 17a:	8f 5f       	subi	r24, 0xFF	; 255
 17c:	90 91 ca 01 	lds	r25, 0x01CA	; 0x8001ca <bars>
 180:	89 17       	cp	r24, r25
 182:	88 f3       	brcs	.-30     	; 0x166 <updateDisplay+0x1a>
 184:	80 e0       	ldi	r24, 0x00	; 0
 186:	0b c0       	rjmp	.+22     	; 0x19e <updateDisplay+0x52>
		strcat(barStr, "Y");
	}
	for(uint8_t i = 0; i < blanks; i++){
		strcat(barStr, "_");
 188:	e2 ed       	ldi	r30, 0xD2	; 210
 18a:	f1 e0       	ldi	r31, 0x01	; 1
 18c:	01 90       	ld	r0, Z+
 18e:	00 20       	and	r0, r0
 190:	e9 f7       	brne	.-6      	; 0x18c <updateDisplay+0x40>
 192:	31 97       	sbiw	r30, 0x01	; 1
 194:	2f e5       	ldi	r18, 0x5F	; 95
 196:	30 e0       	ldi	r19, 0x00	; 0
 198:	31 83       	std	Z+1, r19	; 0x01
 19a:	20 83       	st	Z, r18
	//assemble string
	strcpy(barStr, "");
	for(uint8_t i = 0; i < bars; i++){
		strcat(barStr, "Y");
	}
	for(uint8_t i = 0; i < blanks; i++){
 19c:	8f 5f       	subi	r24, 0xFF	; 255
 19e:	90 91 c9 01 	lds	r25, 0x01C9	; 0x8001c9 <blanks>
 1a2:	89 17       	cp	r24, r25
 1a4:	88 f3       	brcs	.-30     	; 0x188 <updateDisplay+0x3c>
		strcat(barStr, "_");
	}
	
	//mux string
	muxStr = muxTable[mux];
 1a6:	e4 2f       	mov	r30, r20
 1a8:	f0 e0       	ldi	r31, 0x00	; 0
 1aa:	ee 0f       	add	r30, r30
 1ac:	ff 1f       	adc	r31, r31
 1ae:	e0 50       	subi	r30, 0x00	; 0
 1b0:	ff 4f       	sbci	r31, 0xFF	; 255
 1b2:	80 81       	ld	r24, Z
 1b4:	91 81       	ldd	r25, Z+1	; 0x01
 1b6:	90 93 e7 01 	sts	0x01E7, r25	; 0x8001e7 <muxStr+0x1>
 1ba:	80 93 e6 01 	sts	0x01E6, r24	; 0x8001e6 <muxStr>
	
	cursorHome();
 1be:	95 df       	rcall	.-214    	; 0xea <cursorHome>
	
	writeToDisplay(volStrText, strlen(volStrText), 0x80);
 1c0:	e7 e4       	ldi	r30, 0x47	; 71
 1c2:	f1 e0       	ldi	r31, 0x01	; 1
 1c4:	01 90       	ld	r0, Z+
 1c6:	00 20       	and	r0, r0
 1c8:	e9 f7       	brne	.-6      	; 0x1c4 <updateDisplay+0x78>
 1ca:	31 97       	sbiw	r30, 0x01	; 1
 1cc:	bf 01       	movw	r22, r30
 1ce:	67 54       	subi	r22, 0x47	; 71
 1d0:	71 40       	sbci	r23, 0x01	; 1
 1d2:	40 e8       	ldi	r20, 0x80	; 128
 1d4:	87 e4       	ldi	r24, 0x47	; 71
 1d6:	91 e0       	ldi	r25, 0x01	; 1
 1d8:	91 df       	rcall	.-222    	; 0xfc <writeToDisplay>
	
	// write entire bar on reset
	if(first == 0x00){
 1da:	80 91 c8 01 	lds	r24, 0x01C8	; 0x8001c8 <__data_end>
 1de:	81 11       	cpse	r24, r1
 1e0:	11 c0       	rjmp	.+34     	; 0x204 <__DATA_REGION_LENGTH__+0x4>
		writeToDisplay(fullbarStrText, strlen(fullbarStrText), 0xc0);
 1e2:	e8 e0       	ldi	r30, 0x08	; 8
 1e4:	f1 e0       	ldi	r31, 0x01	; 1
 1e6:	01 90       	ld	r0, Z+
 1e8:	00 20       	and	r0, r0
 1ea:	e9 f7       	brne	.-6      	; 0x1e6 <updateDisplay+0x9a>
 1ec:	31 97       	sbiw	r30, 0x01	; 1
 1ee:	bf 01       	movw	r22, r30
 1f0:	68 50       	subi	r22, 0x08	; 8
 1f2:	71 40       	sbci	r23, 0x01	; 1
 1f4:	40 ec       	ldi	r20, 0xC0	; 192
 1f6:	88 e0       	ldi	r24, 0x08	; 8
 1f8:	91 e0       	ldi	r25, 0x01	; 1
 1fa:	80 df       	rcall	.-256    	; 0xfc <writeToDisplay>
		first = 0x01;
 1fc:	81 e0       	ldi	r24, 0x01	; 1
 1fe:	80 93 c8 01 	sts	0x01C8, r24	; 0x8001c8 <__data_end>
 202:	0d c0       	rjmp	.+26     	; 0x21e <__DATA_REGION_LENGTH__+0x1e>
	}
	else{
		writeToDisplay(barStr, strlen(barStr), 0xc0);
 204:	e2 ed       	ldi	r30, 0xD2	; 210
 206:	f1 e0       	ldi	r31, 0x01	; 1
 208:	01 90       	ld	r0, Z+
 20a:	00 20       	and	r0, r0
 20c:	e9 f7       	brne	.-6      	; 0x208 <__DATA_REGION_LENGTH__+0x8>
 20e:	31 97       	sbiw	r30, 0x01	; 1
 210:	bf 01       	movw	r22, r30
 212:	62 5d       	subi	r22, 0xD2	; 210
 214:	71 40       	sbci	r23, 0x01	; 1
 216:	40 ec       	ldi	r20, 0xC0	; 192
 218:	82 ed       	ldi	r24, 0xD2	; 210
 21a:	91 e0       	ldi	r25, 0x01	; 1
 21c:	6f df       	rcall	.-290    	; 0xfc <writeToDisplay>
	}
	
	writeToDisplay(inpStrText, strlen(inpStrText), 0x94);
 21e:	ef e4       	ldi	r30, 0x4F	; 79
 220:	f1 e0       	ldi	r31, 0x01	; 1
 222:	01 90       	ld	r0, Z+
 224:	00 20       	and	r0, r0
 226:	e9 f7       	brne	.-6      	; 0x222 <__DATA_REGION_LENGTH__+0x22>
 228:	31 97       	sbiw	r30, 0x01	; 1
 22a:	bf 01       	movw	r22, r30
 22c:	6f 54       	subi	r22, 0x4F	; 79
 22e:	71 40       	sbci	r23, 0x01	; 1
 230:	44 e9       	ldi	r20, 0x94	; 148
 232:	8f e4       	ldi	r24, 0x4F	; 79
 234:	91 e0       	ldi	r25, 0x01	; 1
 236:	62 df       	rcall	.-316    	; 0xfc <writeToDisplay>
	writeToDisplay(muxStr, strlen(muxStr), 0xd4);
 238:	80 91 e6 01 	lds	r24, 0x01E6	; 0x8001e6 <muxStr>
 23c:	90 91 e7 01 	lds	r25, 0x01E7	; 0x8001e7 <muxStr+0x1>
 240:	fc 01       	movw	r30, r24
 242:	01 90       	ld	r0, Z+
 244:	00 20       	and	r0, r0
 246:	e9 f7       	brne	.-6      	; 0x242 <__DATA_REGION_LENGTH__+0x42>
 248:	31 97       	sbiw	r30, 0x01	; 1
 24a:	bf 01       	movw	r22, r30
 24c:	68 1b       	sub	r22, r24
 24e:	79 0b       	sbc	r23, r25
 250:	44 ed       	ldi	r20, 0xD4	; 212
 252:	54 df       	rcall	.-344    	; 0xfc <writeToDisplay>
 254:	08 95       	ret

00000256 <loadingScreen>:
		
		addressF++;
	}
}

void loadingScreen(void){	
 256:	cf 93       	push	r28
	sendByteByNibble(CURSOR_ON_BLINK);	// display on, cursor on, blink on
 258:	8c e0       	ldi	r24, 0x0C	; 12
 25a:	18 df       	rcall	.-464    	; 0x8c <sendByteByNibble>
	#else
		//round up by default
		__ticks_dc = (uint32_t)(ceil(fabs(__tmp)));
	#endif

	__builtin_avr_delay_cycles(__ticks_dc);
 25c:	8f e9       	ldi	r24, 0x9F	; 159
 25e:	9f e0       	ldi	r25, 0x0F	; 15
 260:	01 97       	sbiw	r24, 0x01	; 1
 262:	f1 f7       	brne	.-4      	; 0x260 <loadingScreen+0xa>
 264:	00 c0       	rjmp	.+0      	; 0x266 <loadingScreen+0x10>
 266:	00 00       	nop
	_delay_ms(2);	//>1.67ms
	
	sendByteByNibble(ENTRY_MODE);		// ready to write
 268:	86 e0       	ldi	r24, 0x06	; 6
 26a:	10 df       	rcall	.-480    	; 0x8c <sendByteByNibble>
 26c:	8f e9       	ldi	r24, 0x9F	; 159
 26e:	9f e0       	ldi	r25, 0x0F	; 15
 270:	01 97       	sbiw	r24, 0x01	; 1
 272:	f1 f7       	brne	.-4      	; 0x270 <loadingScreen+0x1a>
 274:	00 c0       	rjmp	.+0      	; 0x276 <loadingScreen+0x20>
 276:	00 00       	nop
	_delay_ms(2);	//>1.67ms
	
	clearLCD();
 278:	2f df       	rcall	.-418    	; 0xd8 <clearLCD>
	cursorHome();
 27a:	37 df       	rcall	.-402    	; 0xea <cursorHome>
	
	writeToDisplay(emptyStrText, strlen(emptyStrText), 0x80);
 27c:	ed e1       	ldi	r30, 0x1D	; 29
 27e:	f1 e0       	ldi	r31, 0x01	; 1
 280:	01 90       	ld	r0, Z+
 282:	00 20       	and	r0, r0
 284:	e9 f7       	brne	.-6      	; 0x280 <loadingScreen+0x2a>
 286:	31 97       	sbiw	r30, 0x01	; 1
 288:	bf 01       	movw	r22, r30
 28a:	6d 51       	subi	r22, 0x1D	; 29
 28c:	71 40       	sbci	r23, 0x01	; 1
 28e:	40 e8       	ldi	r20, 0x80	; 128
 290:	8d e1       	ldi	r24, 0x1D	; 29
 292:	91 e0       	ldi	r25, 0x01	; 1
 294:	33 df       	rcall	.-410    	; 0xfc <writeToDisplay>
	writeToDisplay(loadingStrText, strlen(loadingStrText), 0xc0);
 296:	e1 e3       	ldi	r30, 0x31	; 49
 298:	f1 e0       	ldi	r31, 0x01	; 1
 29a:	01 90       	ld	r0, Z+
 29c:	00 20       	and	r0, r0
 29e:	e9 f7       	brne	.-6      	; 0x29a <loadingScreen+0x44>
 2a0:	31 97       	sbiw	r30, 0x01	; 1
 2a2:	bf 01       	movw	r22, r30
 2a4:	61 53       	subi	r22, 0x31	; 49
 2a6:	71 40       	sbci	r23, 0x01	; 1
 2a8:	40 ec       	ldi	r20, 0xC0	; 192
 2aa:	81 e3       	ldi	r24, 0x31	; 49
 2ac:	91 e0       	ldi	r25, 0x01	; 1
 2ae:	26 df       	rcall	.-436    	; 0xfc <writeToDisplay>
	
	for(uint8_t i = 0; i < 20; i++){
 2b0:	c0 e0       	ldi	r28, 0x00	; 0
 2b2:	17 c0       	rjmp	.+46     	; 0x2e2 <loadingScreen+0x8c>
		strcat(barStr, "Y");
 2b4:	e2 ed       	ldi	r30, 0xD2	; 210
 2b6:	f1 e0       	ldi	r31, 0x01	; 1
 2b8:	df 01       	movw	r26, r30
 2ba:	0d 90       	ld	r0, X+
 2bc:	00 20       	and	r0, r0
 2be:	e9 f7       	brne	.-6      	; 0x2ba <loadingScreen+0x64>
 2c0:	11 97       	sbiw	r26, 0x01	; 1
 2c2:	89 e5       	ldi	r24, 0x59	; 89
 2c4:	90 e0       	ldi	r25, 0x00	; 0
 2c6:	8d 93       	st	X+, r24
 2c8:	9c 93       	st	X, r25
		writeToDisplay(barStr, strlen(barStr), 0x94);
 2ca:	01 90       	ld	r0, Z+
 2cc:	00 20       	and	r0, r0
 2ce:	e9 f7       	brne	.-6      	; 0x2ca <loadingScreen+0x74>
 2d0:	31 97       	sbiw	r30, 0x01	; 1
 2d2:	bf 01       	movw	r22, r30
 2d4:	62 5d       	subi	r22, 0xD2	; 210
 2d6:	71 40       	sbci	r23, 0x01	; 1
 2d8:	44 e9       	ldi	r20, 0x94	; 148
 2da:	82 ed       	ldi	r24, 0xD2	; 210
 2dc:	91 e0       	ldi	r25, 0x01	; 1
 2de:	0e df       	rcall	.-484    	; 0xfc <writeToDisplay>
	cursorHome();
	
	writeToDisplay(emptyStrText, strlen(emptyStrText), 0x80);
	writeToDisplay(loadingStrText, strlen(loadingStrText), 0xc0);
	
	for(uint8_t i = 0; i < 20; i++){
 2e0:	cf 5f       	subi	r28, 0xFF	; 255
 2e2:	c4 31       	cpi	r28, 0x14	; 20
 2e4:	38 f3       	brcs	.-50     	; 0x2b4 <loadingScreen+0x5e>
		strcat(barStr, "Y");
		writeToDisplay(barStr, strlen(barStr), 0x94);
	}
	
	clearLCD();
 2e6:	f8 de       	rcall	.-528    	; 0xd8 <clearLCD>
	cursorHome();
 2e8:	00 df       	rcall	.-512    	; 0xea <cursorHome>
}
 2ea:	cf 91       	pop	r28
 2ec:	08 95       	ret

000002ee <initDisplay>:
uint8_t blanks = 0x00;
uint8_t first = 0x00;

void initDisplay(void){
	//init
	setRS();
 2ee:	be de       	rcall	.-644    	; 0x6c <setRS>
	setEnable();
 2f0:	c5 de       	rcall	.-630    	; 0x7c <setEnable>
	PORTA = 0x00;
 2f2:	12 b8       	out	0x02, r1	; 2
 2f4:	2f ef       	ldi	r18, 0xFF	; 255
 2f6:	84 e3       	ldi	r24, 0x34	; 52
 2f8:	9c e0       	ldi	r25, 0x0C	; 12
 2fa:	21 50       	subi	r18, 0x01	; 1
 2fc:	80 40       	sbci	r24, 0x00	; 0
 2fe:	90 40       	sbci	r25, 0x00	; 0
 300:	e1 f7       	brne	.-8      	; 0x2fa <initDisplay+0xc>
 302:	00 c0       	rjmp	.+0      	; 0x304 <__stack+0x5>
 304:	00 00       	nop
	//power on delay
	_delay_ms(500);
	
	clearEnable();
 306:	be de       	rcall	.-644    	; 0x84 <clearEnable>
	clearRS();
 308:	b5 de       	rcall	.-662    	; 0x74 <clearRS>
 30a:	2f ef       	ldi	r18, 0xFF	; 255
 30c:	84 e3       	ldi	r24, 0x34	; 52
 30e:	9c e0       	ldi	r25, 0x0C	; 12
 310:	21 50       	subi	r18, 0x01	; 1
 312:	80 40       	sbci	r24, 0x00	; 0
 314:	90 40       	sbci	r25, 0x00	; 0
 316:	e1 f7       	brne	.-8      	; 0x310 <__stack+0x11>
 318:	00 c0       	rjmp	.+0      	; 0x31a <__stack+0x1b>
 31a:	00 00       	nop
	_delay_ms(500);
	
	//send function set 3 times
	sendByteByNibble(FUNCTION_SET);	//Function set
 31c:	80 e3       	ldi	r24, 0x30	; 48
 31e:	b6 de       	rcall	.-660    	; 0x8c <sendByteByNibble>
 320:	8f e2       	ldi	r24, 0x2F	; 47
 322:	95 e7       	ldi	r25, 0x75	; 117
 324:	01 97       	sbiw	r24, 0x01	; 1
 326:	f1 f7       	brne	.-4      	; 0x324 <__stack+0x25>
 328:	00 c0       	rjmp	.+0      	; 0x32a <__stack+0x2b>
 32a:	00 00       	nop
	_delay_ms(15);	//>4.1
	
	sendByteByNibble(FUNCTION_SET);	//Function set
 32c:	80 e3       	ldi	r24, 0x30	; 48
 32e:	ae de       	rcall	.-676    	; 0x8c <sendByteByNibble>
 330:	8f e0       	ldi	r24, 0x0F	; 15
 332:	97 e2       	ldi	r25, 0x27	; 39
 334:	01 97       	sbiw	r24, 0x01	; 1
 336:	f1 f7       	brne	.-4      	; 0x334 <__stack+0x35>
 338:	00 c0       	rjmp	.+0      	; 0x33a <__stack+0x3b>
 33a:	00 00       	nop
	_delay_ms(5);	//>1.67ms
	
	sendByteByNibble(FUNCTION_SET);	//Function set
 33c:	80 e3       	ldi	r24, 0x30	; 48
 33e:	a6 de       	rcall	.-692    	; 0x8c <sendByteByNibble>
 340:	8f e9       	ldi	r24, 0x9F	; 159
 342:	9f e0       	ldi	r25, 0x0F	; 15
 344:	01 97       	sbiw	r24, 0x01	; 1
 346:	f1 f7       	brne	.-4      	; 0x344 <__stack+0x45>
 348:	00 c0       	rjmp	.+0      	; 0x34a <__stack+0x4b>
 34a:	00 00       	nop
	_delay_ms(2);	//>1.67ms
	
	sendByteByNibble(FUNCTION_SET_4BIT);	//Function set	- 4bit mode
 34c:	80 e2       	ldi	r24, 0x20	; 32
 34e:	9e de       	rcall	.-708    	; 0x8c <sendByteByNibble>
 350:	8f e9       	ldi	r24, 0x9F	; 159
 352:	9f e0       	ldi	r25, 0x0F	; 15
 354:	01 97       	sbiw	r24, 0x01	; 1
 356:	f1 f7       	brne	.-4      	; 0x354 <__stack+0x55>
 358:	00 c0       	rjmp	.+0      	; 0x35a <__stack+0x5b>
 35a:	00 00       	nop
	_delay_ms(2);	//>1.67ms
	
	sendByteByNibble(CURSOR_ON_BLINK);	// display on, cursor on, blink on
 35c:	8c e0       	ldi	r24, 0x0C	; 12
 35e:	96 de       	rcall	.-724    	; 0x8c <sendByteByNibble>
 360:	8f e9       	ldi	r24, 0x9F	; 159
 362:	9f e0       	ldi	r25, 0x0F	; 15
 364:	01 97       	sbiw	r24, 0x01	; 1
 366:	f1 f7       	brne	.-4      	; 0x364 <__stack+0x65>
 368:	00 c0       	rjmp	.+0      	; 0x36a <__stack+0x6b>
 36a:	00 00       	nop
	_delay_ms(2);	//>1.67ms
	
	sendByteByNibble(ENTRY_MODE);	// ready to write
 36c:	86 e0       	ldi	r24, 0x06	; 6
 36e:	8e de       	rcall	.-740    	; 0x8c <sendByteByNibble>
 370:	8f e9       	ldi	r24, 0x9F	; 159
 372:	9f e0       	ldi	r25, 0x0F	; 15
 374:	01 97       	sbiw	r24, 0x01	; 1
 376:	f1 f7       	brne	.-4      	; 0x374 <__stack+0x75>
 378:	00 c0       	rjmp	.+0      	; 0x37a <__stack+0x7b>
 37a:	00 00       	nop
	_delay_ms(2);	//>1.67ms
	
	sendByteByNibble(RETURN_HOME);	// return home
 37c:	82 e0       	ldi	r24, 0x02	; 2
 37e:	86 de       	rcall	.-756    	; 0x8c <sendByteByNibble>
 380:	8f e9       	ldi	r24, 0x9F	; 159
 382:	9f e0       	ldi	r25, 0x0F	; 15
 384:	01 97       	sbiw	r24, 0x01	; 1
 386:	f1 f7       	brne	.-4      	; 0x384 <__stack+0x85>
 388:	00 c0       	rjmp	.+0      	; 0x38a <__stack+0x8b>
 38a:	00 00       	nop
	_delay_ms(2);	//>1.67ms
	
	clearLCD();
 38c:	a5 de       	rcall	.-694    	; 0xd8 <clearLCD>
 38e:	08 95       	ret

00000390 <EEPROM_write>:

void EEPROM_write(uint8_t ucAddress, uint8_t ucData)
{
	//cli();
	/* Wait for completion of previous write */
	while(EECR & (1<<EEPE));
 390:	f9 99       	sbic	0x1f, 1	; 31
 392:	fe cf       	rjmp	.-4      	; 0x390 <EEPROM_write>
	/* Set Programming mode */
	EECR = (0<<EEPM1)|(0<<EEPM0);
 394:	1f ba       	out	0x1f, r1	; 31
	/* Set up address and data registers */
	EEAR = ucAddress; 
 396:	81 bd       	out	0x21, r24	; 33
	EEDR = ucData;
 398:	60 bd       	out	0x20, r22	; 32
	/* Write logical one to EEMPE */
	EECR |= (1<<EEMPE);
 39a:	8f b3       	in	r24, 0x1f	; 31
 39c:	84 60       	ori	r24, 0x04	; 4
 39e:	8f bb       	out	0x1f, r24	; 31
	/* Start eeprom write by setting EEPE */
	EECR |= (1<<EEPE);
 3a0:	8f b3       	in	r24, 0x1f	; 31
 3a2:	82 60       	ori	r24, 0x02	; 2
 3a4:	8f bb       	out	0x1f, r24	; 31
 3a6:	08 95       	ret

000003a8 <EEPROM_read>:
	//sei();
}

uint8_t EEPROM_read(uint8_t ucAddress)
{
	cli();
 3a8:	f8 94       	cli
	/* Wait for completion of previous write */
	while(EECR & (1<<EEPE));
 3aa:	f9 99       	sbic	0x1f, 1	; 31
 3ac:	fe cf       	rjmp	.-4      	; 0x3aa <EEPROM_read+0x2>
	/* Set up address register */
	EEAR = ucAddress;
 3ae:	81 bd       	out	0x21, r24	; 33
	/* Start eeprom read by writing EERE */
	EECR |= (1<<EERE);
 3b0:	8f b3       	in	r24, 0x1f	; 31
 3b2:	81 60       	ori	r24, 0x01	; 1
 3b4:	8f bb       	out	0x1f, r24	; 31
	/* Return data from data register */
	sei();
 3b6:	78 94       	sei
	return EEDR;
 3b8:	80 b5       	in	r24, 0x20	; 32
 3ba:	08 95       	ret

000003bc <clkLow>:
	clkLow();
	_delay_us(I2CSpeed);
}

void clkLow(void){
	PORTB &= 0b01111111;
 3bc:	86 b1       	in	r24, 0x06	; 6
 3be:	8f 77       	andi	r24, 0x7F	; 127
 3c0:	86 b9       	out	0x06, r24	; 6
 3c2:	08 95       	ret

000003c4 <clkHigh>:
}

void clkHigh(void){
	PORTB |= 0b10000000;
 3c4:	86 b1       	in	r24, 0x06	; 6
 3c6:	80 68       	ori	r24, 0x80	; 128
 3c8:	86 b9       	out	0x06, r24	; 6
 3ca:	08 95       	ret

000003cc <clkPulse>:
	sdaHigh();
	_delay_us(I2CSpeed);
}

void clkPulse(void){
	clkHigh();
 3cc:	fb df       	rcall	.-10     	; 0x3c4 <clkHigh>
	#else
		//round up by default
		__ticks_dc = (uint32_t)(ceil(fabs(__tmp)));
	#endif

	__builtin_avr_delay_cycles(__ticks_dc);
 3ce:	8a e8       	ldi	r24, 0x8A	; 138
 3d0:	8a 95       	dec	r24
 3d2:	f1 f7       	brne	.-4      	; 0x3d0 <clkPulse+0x4>
 3d4:	00 c0       	rjmp	.+0      	; 0x3d6 <clkPulse+0xa>
	_delay_us(I2CSpeed);
	clkLow();
 3d6:	f2 df       	rcall	.-28     	; 0x3bc <clkLow>
 3d8:	8a e8       	ldi	r24, 0x8A	; 138
 3da:	8a 95       	dec	r24
 3dc:	f1 f7       	brne	.-4      	; 0x3da <clkPulse+0xe>
 3de:	00 c0       	rjmp	.+0      	; 0x3e0 <clkPulse+0x14>
 3e0:	08 95       	ret

000003e2 <sdaLow>:
void clkHigh(void){
	PORTB |= 0b10000000;
}

void sdaLow(void){
	PORTB &= 0b10111111;
 3e2:	86 b1       	in	r24, 0x06	; 6
 3e4:	8f 7b       	andi	r24, 0xBF	; 191
 3e6:	86 b9       	out	0x06, r24	; 6
 3e8:	08 95       	ret

000003ea <startCom>:
	clkPulse();
}

void startCom(void){
	//start condition
	sdaLow();
 3ea:	fb df       	rcall	.-10     	; 0x3e2 <sdaLow>
 3ec:	8a e8       	ldi	r24, 0x8A	; 138
 3ee:	8a 95       	dec	r24
 3f0:	f1 f7       	brne	.-4      	; 0x3ee <startCom+0x4>
 3f2:	00 c0       	rjmp	.+0      	; 0x3f4 <startCom+0xa>
	_delay_us(I2CSpeed);
	clkLow();
 3f4:	e3 df       	rcall	.-58     	; 0x3bc <clkLow>
 3f6:	8a e8       	ldi	r24, 0x8A	; 138
 3f8:	8a 95       	dec	r24
 3fa:	f1 f7       	brne	.-4      	; 0x3f8 <startCom+0xe>
 3fc:	00 c0       	rjmp	.+0      	; 0x3fe <startCom+0x14>
 3fe:	08 95       	ret

00000400 <sdaHigh>:
void sdaLow(void){
	PORTB &= 0b10111111;
}

void sdaHigh(void){
	PORTB |= 0b01000000;
 400:	86 b1       	in	r24, 0x06	; 6
 402:	80 64       	ori	r24, 0x40	; 64
 404:	86 b9       	out	0x06, r24	; 6
 406:	08 95       	ret

00000408 <initI2C>:

#include "../main.h"
#include "I2C.h"

void initI2C(){
	sdaHigh();
 408:	fb df       	rcall	.-10     	; 0x400 <sdaHigh>
	clkHigh();
 40a:	dc df       	rcall	.-72     	; 0x3c4 <clkHigh>
 40c:	8a e8       	ldi	r24, 0x8A	; 138
 40e:	8a 95       	dec	r24
 410:	f1 f7       	brne	.-4      	; 0x40e <initI2C+0x6>
 412:	00 c0       	rjmp	.+0      	; 0x414 <initI2C+0xc>
 414:	08 95       	ret

00000416 <sendI2C>:
	sendI2C(subAddress);
	sendI2C(data);
	finishCom();
}

void sendI2C(uint8_t input){
 416:	cf 93       	push	r28
 418:	df 93       	push	r29
	uint8_t shift = 0x00;
	uint8_t mask = 0b00000001;
	uint8_t result = 0x00;
	
	//send input
	shift = reverse(input);
 41a:	77 d0       	rcall	.+238    	; 0x50a <reverse>
 41c:	d8 2f       	mov	r29, r24
	for(uint8_t index = 0; index < 8; index++){
 41e:	c0 e0       	ldi	r28, 0x00	; 0
 420:	08 c0       	rjmp	.+16     	; 0x432 <sendI2C+0x1c>
		result = shift & mask;
		if(result == 0x01){
 422:	d0 ff       	sbrs	r29, 0
 424:	02 c0       	rjmp	.+4      	; 0x42a <sendI2C+0x14>
			sdaHigh();
 426:	ec df       	rcall	.-40     	; 0x400 <sdaHigh>
 428:	01 c0       	rjmp	.+2      	; 0x42c <sendI2C+0x16>
		}
		else{
			sdaLow();
 42a:	db df       	rcall	.-74     	; 0x3e2 <sdaLow>
		}
		clkPulse();
 42c:	cf df       	rcall	.-98     	; 0x3cc <clkPulse>
		shift = (shift >> 1);	//shift right by one
 42e:	d6 95       	lsr	r29
	uint8_t mask = 0b00000001;
	uint8_t result = 0x00;
	
	//send input
	shift = reverse(input);
	for(uint8_t index = 0; index < 8; index++){
 430:	cf 5f       	subi	r28, 0xFF	; 255
 432:	c8 30       	cpi	r28, 0x08	; 8
 434:	b0 f3       	brcs	.-20     	; 0x422 <sendI2C+0xc>
		}
		clkPulse();
		shift = (shift >> 1);	//shift right by one
	}
	//ACK
	sdaHigh();
 436:	e4 df       	rcall	.-56     	; 0x400 <sdaHigh>
	clkPulse();
 438:	c9 df       	rcall	.-110    	; 0x3cc <clkPulse>
}
 43a:	df 91       	pop	r29
 43c:	cf 91       	pop	r28
 43e:	08 95       	ret

00000440 <finishCom>:
	_delay_us(I2CSpeed);
}

void finishCom(){
	// finish communication
	clkHigh();
 440:	c1 df       	rcall	.-126    	; 0x3c4 <clkHigh>
 442:	8a e8       	ldi	r24, 0x8A	; 138
 444:	8a 95       	dec	r24
 446:	f1 f7       	brne	.-4      	; 0x444 <finishCom+0x4>
 448:	00 c0       	rjmp	.+0      	; 0x44a <finishCom+0xa>
	_delay_us(I2CSpeed);
	sdaHigh();
 44a:	da df       	rcall	.-76     	; 0x400 <sdaHigh>
 44c:	8a e8       	ldi	r24, 0x8A	; 138
 44e:	8a 95       	dec	r24
 450:	f1 f7       	brne	.-4      	; 0x44e <finishCom+0xe>
 452:	00 c0       	rjmp	.+0      	; 0x454 <finishCom+0x14>
 454:	08 95       	ret

00000456 <setTDAValue>:
	sdaHigh();
	clkHigh();
	_delay_us(I2CSpeed);
}

void setTDAValue(uint8_t chipAddress, uint8_t subAddress, uint8_t data){
 456:	1f 93       	push	r17
 458:	cf 93       	push	r28
 45a:	df 93       	push	r29
 45c:	18 2f       	mov	r17, r24
 45e:	d6 2f       	mov	r29, r22
 460:	c4 2f       	mov	r28, r20
	startCom();
 462:	c3 df       	rcall	.-122    	; 0x3ea <startCom>
	sendI2C(chipAddress);
 464:	81 2f       	mov	r24, r17
 466:	d7 df       	rcall	.-82     	; 0x416 <sendI2C>
	sendI2C(subAddress);
 468:	8d 2f       	mov	r24, r29
 46a:	d5 df       	rcall	.-86     	; 0x416 <sendI2C>
	sendI2C(data);
 46c:	8c 2f       	mov	r24, r28
 46e:	d3 df       	rcall	.-90     	; 0x416 <sendI2C>
	finishCom();
 470:	e7 df       	rcall	.-50     	; 0x440 <finishCom>
}
 472:	df 91       	pop	r29
 474:	cf 91       	pop	r28
 476:	1f 91       	pop	r17
 478:	08 95       	ret

0000047a <initIO>:
}

//-----------------------------------------------------------------------------------------	IO
void initIO(){
	//PORT A
	DDRA = 0xff;	//output			
 47a:	8f ef       	ldi	r24, 0xFF	; 255
 47c:	81 b9       	out	0x01, r24	; 1
	PUEA = 0xff;	//Set pull ups
 47e:	83 b9       	out	0x03, r24	; 3
	PORTA = 0x00;	//write zero
 480:	12 b8       	out	0x02, r1	; 2
	//PORT B
	DDRB = 0b11000000;	//output
 482:	90 ec       	ldi	r25, 0xC0	; 192
 484:	95 b9       	out	0x05, r25	; 5
	PUEB = 0xff;		//Set pull ups
 486:	87 b9       	out	0x07, r24	; 7
	PORTB = 0b00000000;	//write zero
 488:	16 b8       	out	0x06, r1	; 6
	//PORT C
	DDRC = 0b11000000;	//output
 48a:	99 b9       	out	0x09, r25	; 9
	PUEC = 0xff;		//Set pull ups
 48c:	8b b9       	out	0x0b, r24	; 11
	PORTC = 0b00000000;	//write zero
 48e:	1a b8       	out	0x0a, r1	; 10
 490:	08 95       	ret

00000492 <initADC>:
}

//-----------------------------------------------------------------------------------------	ADC
void initADC(){
	PRR		&= 0b11111110;		//turn power saving off
 492:	e4 e6       	ldi	r30, 0x64	; 100
 494:	f0 e0       	ldi	r31, 0x00	; 0
 496:	80 81       	ld	r24, Z
 498:	8e 7f       	andi	r24, 0xFE	; 254
 49a:	80 83       	st	Z, r24
	ADCSRA	|= 0b10000000;		//turn ADEN on
 49c:	ea e7       	ldi	r30, 0x7A	; 122
 49e:	f0 e0       	ldi	r31, 0x00	; 0
 4a0:	80 81       	ld	r24, Z
 4a2:	80 68       	ori	r24, 0x80	; 128
 4a4:	80 83       	st	Z, r24
	ADMUXB	&= 0b00000000;		//Voltage reference VCC
 4a6:	ad e7       	ldi	r26, 0x7D	; 125
 4a8:	b0 e0       	ldi	r27, 0x00	; 0
 4aa:	8c 91       	ld	r24, X
 4ac:	1c 92       	st	X, r1
	ADCSRA	|= 0b00000100;		//set Scaler 0100 => /16
 4ae:	80 81       	ld	r24, Z
 4b0:	84 60       	ori	r24, 0x04	; 4
 4b2:	80 83       	st	Z, r24
	ADCSRB	|= 0b00001000;		//left adjusted
 4b4:	eb e7       	ldi	r30, 0x7B	; 123
 4b6:	f0 e0       	ldi	r31, 0x00	; 0
 4b8:	80 81       	ld	r24, Z
 4ba:	88 60       	ori	r24, 0x08	; 8
 4bc:	80 83       	st	Z, r24
 4be:	08 95       	ret

000004c0 <ReadADCPinValue>:
}

uint8_t ReadADCPinValue(uint8_t ADCReadPin){
	ADMUXA = ADCReadPin;
 4c0:	80 93 7c 00 	sts	0x007C, r24	; 0x80007c <__TEXT_REGION_LENGTH__+0x7fe07c>
	
	// Start ADC conversion
	ADCSRA |= (1 << ADSC);
 4c4:	ea e7       	ldi	r30, 0x7A	; 122
 4c6:	f0 e0       	ldi	r31, 0x00	; 0
 4c8:	80 81       	ld	r24, Z
 4ca:	80 64       	ori	r24, 0x40	; 64
 4cc:	80 83       	st	Z, r24
	
	// Wait for ADC conversion to complete
	while (ADCSRA & (1 << ADSC));
 4ce:	80 91 7a 00 	lds	r24, 0x007A	; 0x80007a <__TEXT_REGION_LENGTH__+0x7fe07a>
 4d2:	86 fd       	sbrc	r24, 6
 4d4:	fc cf       	rjmp	.-8      	; 0x4ce <ReadADCPinValue+0xe>
	
	// Return ADC result
	return ADCH;
 4d6:	80 91 79 00 	lds	r24, 0x0079	; 0x800079 <__TEXT_REGION_LENGTH__+0x7fe079>
}
 4da:	08 95       	ret

000004dc <initTimer1>:

//-----------------------------------------------------------------------------------------	Timer1
void initTimer1(void){
	PRR	   &= 0b11110111;						//power saving off
 4dc:	e4 e6       	ldi	r30, 0x64	; 100
 4de:	f0 e0       	ldi	r31, 0x00	; 0
 4e0:	80 81       	ld	r24, Z
 4e2:	87 7f       	andi	r24, 0xF7	; 247
 4e4:	80 83       	st	Z, r24

	TCCR1B |= (1 << WGM12 );					// Configure timer 1 for CTC mode
 4e6:	e1 e8       	ldi	r30, 0x81	; 129
 4e8:	f0 e0       	ldi	r31, 0x00	; 0
 4ea:	80 81       	ld	r24, Z
 4ec:	88 60       	ori	r24, 0x08	; 8
 4ee:	80 83       	st	Z, r24
	OCR1A = 0;
 4f0:	10 92 89 00 	sts	0x0089, r1	; 0x800089 <__TEXT_REGION_LENGTH__+0x7fe089>
 4f4:	10 92 88 00 	sts	0x0088, r1	; 0x800088 <__TEXT_REGION_LENGTH__+0x7fe088>
	
	TIMSK1 |= (1 << OCIE1A );					// Enable CTC interrupt
 4f8:	af e6       	ldi	r26, 0x6F	; 111
 4fa:	b0 e0       	ldi	r27, 0x00	; 0
 4fc:	8c 91       	ld	r24, X
 4fe:	82 60       	ori	r24, 0x02	; 2
 500:	8c 93       	st	X, r24
	//TCCR1B |= (1 << CS11 ) | (1 << CS10 );		// prescaler of 64
	TCCR1B |= (1 << CS12);
 502:	80 81       	ld	r24, Z
 504:	84 60       	ori	r24, 0x04	; 4
 506:	80 83       	st	Z, r24
 508:	08 95       	ret

0000050a <reverse>:
}

//-----------------------------------------------------------------------------------------	MISC
// src: https://stackoverflow.com/questions/2602823/in-c-c-whats-the-simplest-way-to-reverse-the-order-of-bits-in-a-byte
uint8_t reverse(uint8_t b) {
	b = (b & 0xF0) >> 4 | (b & 0x0F) << 4;
 50a:	28 2f       	mov	r18, r24
 50c:	22 95       	swap	r18
 50e:	2f 70       	andi	r18, 0x0F	; 15
 510:	90 e0       	ldi	r25, 0x00	; 0
 512:	82 95       	swap	r24
 514:	92 95       	swap	r25
 516:	90 7f       	andi	r25, 0xF0	; 240
 518:	98 27       	eor	r25, r24
 51a:	80 7f       	andi	r24, 0xF0	; 240
 51c:	98 27       	eor	r25, r24
 51e:	92 2f       	mov	r25, r18
 520:	98 2b       	or	r25, r24
	b = (b & 0xCC) >> 2 | (b & 0x33) << 2;
 522:	29 2f       	mov	r18, r25
 524:	2c 7c       	andi	r18, 0xCC	; 204
 526:	30 e0       	ldi	r19, 0x00	; 0
 528:	35 95       	asr	r19
 52a:	27 95       	ror	r18
 52c:	35 95       	asr	r19
 52e:	27 95       	ror	r18
 530:	93 73       	andi	r25, 0x33	; 51
 532:	89 2f       	mov	r24, r25
 534:	90 e0       	ldi	r25, 0x00	; 0
 536:	88 0f       	add	r24, r24
 538:	99 1f       	adc	r25, r25
 53a:	88 0f       	add	r24, r24
 53c:	99 1f       	adc	r25, r25
 53e:	82 2b       	or	r24, r18
	b = (b & 0xAA) >> 1 | (b & 0x55) << 1;
 540:	28 2f       	mov	r18, r24
 542:	2a 7a       	andi	r18, 0xAA	; 170
 544:	30 e0       	ldi	r19, 0x00	; 0
 546:	35 95       	asr	r19
 548:	27 95       	ror	r18
 54a:	85 75       	andi	r24, 0x55	; 85
 54c:	90 e0       	ldi	r25, 0x00	; 0
 54e:	88 0f       	add	r24, r24
 550:	99 1f       	adc	r25, r25
	return b;
}
 552:	82 2b       	or	r24, r18
 554:	08 95       	ret

00000556 <initclk>:

void initclk(void){
	//Set prescaler to 1;
	CCP	= 0xD8;		
 556:	88 ed       	ldi	r24, 0xD8	; 216
 558:	86 bf       	out	0x36, r24	; 54
	CLKPR = 0x00;
 55a:	10 92 61 00 	sts	0x0061, r1	; 0x800061 <__TEXT_REGION_LENGTH__+0x7fe061>
 55e:	08 95       	ret

00000560 <main>:
uint8_t muteLeds = 0x00;

int main(void)
{	
	//clk
	initclk();
 560:	fa df       	rcall	.-12     	; 0x556 <initclk>
	
	//IO
	initIO();
 562:	8b df       	rcall	.-234    	; 0x47a <initIO>
	
	//ADC
	initADC();
 564:	96 df       	rcall	.-212    	; 0x492 <initADC>
	
	//TIMER1
	initTimer1();
 566:	ba df       	rcall	.-140    	; 0x4dc <initTimer1>

	//I2C
	initI2C();
 568:	4f df       	rcall	.-354    	; 0x408 <initI2C>
	
	//DISPLAY
	initDisplay();
 56a:	c1 de       	rcall	.-638    	; 0x2ee <initDisplay>
	
	//ENABLE INTERRUPTS
	sei();
 56c:	78 94       	sei
	
	//read volume value
	volume = EEPROM_read(0x00);
 56e:	80 e0       	ldi	r24, 0x00	; 0
 570:	1b df       	rcall	.-458    	; 0x3a8 <EEPROM_read>
 572:	80 93 d1 01 	sts	0x01D1, r24	; 0x8001d1 <volume>
	
	//unmute TDA IC
	setTDAValue(CHIP_ADDRESS, SubAdr_Speaker_attenuation_L, 0x00);
 576:	40 e0       	ldi	r20, 0x00	; 0
 578:	66 e0       	ldi	r22, 0x06	; 6
 57a:	88 e8       	ldi	r24, 0x88	; 136
 57c:	6c df       	rcall	.-296    	; 0x456 <setTDAValue>
	setTDAValue(CHIP_ADDRESS, SubAdr_Speaker_attenuation_R, 0x00);
 57e:	40 e0       	ldi	r20, 0x00	; 0
 580:	67 e0       	ldi	r22, 0x07	; 7
 582:	88 e8       	ldi	r24, 0x88	; 136
 584:	68 df       	rcall	.-304    	; 0x456 <setTDAValue>
	setTDAValue(CHIP_ADDRESS, SubAdr_Volume, 0x00);
 586:	40 e0       	ldi	r20, 0x00	; 0
 588:	62 e0       	ldi	r22, 0x02	; 2
 58a:	88 e8       	ldi	r24, 0x88	; 136
 58c:	64 df       	rcall	.-312    	; 0x456 <setTDAValue>
		
	loadingScreen();
 58e:	63 de       	rcall	.-826    	; 0x256 <loadingScreen>
	
	while (1)
	{
		//read inputs
		gain = ReadADCPinValue(0b00001000);			//PB0
 590:	88 e0       	ldi	r24, 0x08	; 8
 592:	96 df       	rcall	.-212    	; 0x4c0 <ReadADCPinValue>
 594:	80 93 cf 01 	sts	0x01CF, r24	; 0x8001cf <gain>
		bass = ReadADCPinValue(0b00001011);			//PB3
 598:	8b e0       	ldi	r24, 0x0B	; 11
 59a:	92 df       	rcall	.-220    	; 0x4c0 <ReadADCPinValue>
 59c:	80 93 ce 01 	sts	0x01CE, r24	; 0x8001ce <bass>
		midRange = ReadADCPinValue(0b00001100);		//PB4
 5a0:	8c e0       	ldi	r24, 0x0C	; 12
 5a2:	8e df       	rcall	.-228    	; 0x4c0 <ReadADCPinValue>
 5a4:	80 93 cd 01 	sts	0x01CD, r24	; 0x8001cd <midRange>
		treble = 255 - ReadADCPinValue(0b00001101);	//PB5
 5a8:	8d e0       	ldi	r24, 0x0D	; 13
 5aa:	8a df       	rcall	.-236    	; 0x4c0 <ReadADCPinValue>
 5ac:	80 95       	com	r24
 5ae:	80 93 cc 01 	sts	0x01CC, r24	; 0x8001cc <treble>
		
		//mux PC2 PC3 PC4 PC5
		mux = 0;
 5b2:	10 92 d0 01 	sts	0x01D0, r1	; 0x8001d0 <mux>
		if (PINC & (1 << PINC3)) mux = 1;
 5b6:	43 9b       	sbis	0x08, 3	; 8
 5b8:	03 c0       	rjmp	.+6      	; 0x5c0 <main+0x60>
 5ba:	81 e0       	ldi	r24, 0x01	; 1
 5bc:	80 93 d0 01 	sts	0x01D0, r24	; 0x8001d0 <mux>
		if (PINC & (1 << PINC4)) mux = 2;
 5c0:	44 9b       	sbis	0x08, 4	; 8
 5c2:	03 c0       	rjmp	.+6      	; 0x5ca <main+0x6a>
 5c4:	82 e0       	ldi	r24, 0x02	; 2
 5c6:	80 93 d0 01 	sts	0x01D0, r24	; 0x8001d0 <mux>
		if (PINC & (1 << PINC5)) mux = 3;
 5ca:	45 9b       	sbis	0x08, 5	; 8
 5cc:	03 c0       	rjmp	.+6      	; 0x5d4 <main+0x74>
 5ce:	83 e0       	ldi	r24, 0x03	; 3
 5d0:	80 93 d0 01 	sts	0x01D0, r24	; 0x8001d0 <mux>
		
		//TDA update
		setTDAValue(CHIP_ADDRESS, SubAdr_Input_selector, mux);
 5d4:	40 91 d0 01 	lds	r20, 0x01D0	; 0x8001d0 <mux>
 5d8:	60 e0       	ldi	r22, 0x00	; 0
 5da:	88 e8       	ldi	r24, 0x88	; 136
 5dc:	3c df       	rcall	.-392    	; 0x456 <setTDAValue>
		setTDAValue(CHIP_ADDRESS, SubAdr_Input_gain, ((gain >> 4) & 0b00001111));
 5de:	40 91 cf 01 	lds	r20, 0x01CF	; 0x8001cf <gain>
 5e2:	42 95       	swap	r20
 5e4:	4f 70       	andi	r20, 0x0F	; 15
 5e6:	61 e0       	ldi	r22, 0x01	; 1
 5e8:	88 e8       	ldi	r24, 0x88	; 136
 5ea:	35 df       	rcall	.-406    	; 0x456 <setTDAValue>
		setTDAValue(CHIP_ADDRESS, SubAdr_Volume, convert6bits((255 - volume)));
 5ec:	80 91 d1 01 	lds	r24, 0x01D1	; 0x8001d1 <volume>
 5f0:	80 95       	com	r24
 5f2:	79 d0       	rcall	.+242    	; 0x6e6 <convert6bits>
 5f4:	48 2f       	mov	r20, r24
 5f6:	62 e0       	ldi	r22, 0x02	; 2
 5f8:	88 e8       	ldi	r24, 0x88	; 136
 5fa:	2d df       	rcall	.-422    	; 0x456 <setTDAValue>
		setTDAValue(CHIP_ADDRESS, SubAdr_Bass_gain,  convert4bits(bass));
 5fc:	80 91 ce 01 	lds	r24, 0x01CE	; 0x8001ce <bass>
 600:	6a d0       	rcall	.+212    	; 0x6d6 <convert4bits>
 602:	48 2f       	mov	r20, r24
 604:	63 e0       	ldi	r22, 0x03	; 3
 606:	88 e8       	ldi	r24, 0x88	; 136
 608:	26 df       	rcall	.-436    	; 0x456 <setTDAValue>
		setTDAValue(CHIP_ADDRESS, SubAdr_Mid_range_gain,  convert4bits(midRange));
 60a:	80 91 cd 01 	lds	r24, 0x01CD	; 0x8001cd <midRange>
 60e:	63 d0       	rcall	.+198    	; 0x6d6 <convert4bits>
 610:	48 2f       	mov	r20, r24
 612:	64 e0       	ldi	r22, 0x04	; 4
 614:	88 e8       	ldi	r24, 0x88	; 136
 616:	1f df       	rcall	.-450    	; 0x456 <setTDAValue>
		setTDAValue(CHIP_ADDRESS, SubAdr_Treble_gain,  convert4bits(treble));
 618:	80 91 cc 01 	lds	r24, 0x01CC	; 0x8001cc <treble>
 61c:	5c d0       	rcall	.+184    	; 0x6d6 <convert4bits>
 61e:	48 2f       	mov	r20, r24
 620:	65 e0       	ldi	r22, 0x05	; 5
 622:	88 e8       	ldi	r24, 0x88	; 136
 624:	18 df       	rcall	.-464    	; 0x456 <setTDAValue>
			
		//Display update -> parallel
		updateDisplay(volume, mux);
 626:	80 91 d1 01 	lds	r24, 0x01D1	; 0x8001d1 <volume>
 62a:	60 91 d0 01 	lds	r22, 0x01D0	; 0x8001d0 <mux>
 62e:	8e dd       	rcall	.-1252   	; 0x14c <updateDisplay>
	}
 630:	af cf       	rjmp	.-162    	; 0x590 <main+0x30>

00000632 <__vector_9>:
	CCP	= 0xD8;		
	CLKPR = 0x00;
}

//-----------------------------------------------------------------------------------------	ISR
ISR(TIMER1_COMPA_vect, ISR_BLOCK){
 632:	1f 92       	push	r1
 634:	0f 92       	push	r0
 636:	0f b6       	in	r0, 0x3f	; 63
 638:	0f 92       	push	r0
 63a:	11 24       	eor	r1, r1
 63c:	2f 93       	push	r18
 63e:	3f 93       	push	r19
 640:	4f 93       	push	r20
 642:	5f 93       	push	r21
 644:	6f 93       	push	r22
 646:	7f 93       	push	r23
 648:	8f 93       	push	r24
 64a:	9f 93       	push	r25
 64c:	af 93       	push	r26
 64e:	bf 93       	push	r27
 650:	ef 93       	push	r30
 652:	ff 93       	push	r31
	/*
	0x00	READ
	0x01	IDLE	*/
	
	//rotary encoder
	switch (volumeSwitchState)
 654:	80 91 cb 01 	lds	r24, 0x01CB	; 0x8001cb <volumeSwitchState.1838>
 658:	88 23       	and	r24, r24
 65a:	19 f0       	breq	.+6      	; 0x662 <__vector_9+0x30>
 65c:	81 30       	cpi	r24, 0x01	; 1
 65e:	39 f1       	breq	.+78     	; 0x6ae <__vector_9+0x7c>
 660:	29 c0       	rjmp	.+82     	; 0x6b4 <__vector_9+0x82>
	{
		case 0x00:
		if(PINB & (1<<PINB2)){					// clk = 0?
 662:	22 9b       	sbis	0x04, 2	; 4
 664:	27 c0       	rjmp	.+78     	; 0x6b4 <__vector_9+0x82>
			if(PINB & (1<<PINB1)){				// data = 0
 666:	21 9b       	sbis	0x04, 1	; 4
 668:	11 c0       	rjmp	.+34     	; 0x68c <__vector_9+0x5a>
				if(volume >= 5){
 66a:	80 91 d1 01 	lds	r24, 0x01D1	; 0x8001d1 <volume>
 66e:	85 30       	cpi	r24, 0x05	; 5
 670:	48 f0       	brcs	.+18     	; 0x684 <__vector_9+0x52>
					volume -= 5;
 672:	80 91 d1 01 	lds	r24, 0x01D1	; 0x8001d1 <volume>
 676:	85 50       	subi	r24, 0x05	; 5
 678:	80 93 d1 01 	sts	0x01D1, r24	; 0x8001d1 <volume>
					EEPROM_write(0x00, volume);
 67c:	60 91 d1 01 	lds	r22, 0x01D1	; 0x8001d1 <volume>
 680:	80 e0       	ldi	r24, 0x00	; 0
 682:	86 de       	rcall	.-756    	; 0x390 <EEPROM_write>
				}
				volumeSwitchState = 0x01;
 684:	81 e0       	ldi	r24, 0x01	; 1
 686:	80 93 cb 01 	sts	0x01CB, r24	; 0x8001cb <volumeSwitchState.1838>
 68a:	14 c0       	rjmp	.+40     	; 0x6b4 <__vector_9+0x82>
			}
			else{								// data = 1
				if(volume <= 250){
 68c:	80 91 d1 01 	lds	r24, 0x01D1	; 0x8001d1 <volume>
 690:	8b 3f       	cpi	r24, 0xFB	; 251
 692:	48 f4       	brcc	.+18     	; 0x6a6 <__vector_9+0x74>
					volume += 5;
 694:	80 91 d1 01 	lds	r24, 0x01D1	; 0x8001d1 <volume>
 698:	8b 5f       	subi	r24, 0xFB	; 251
 69a:	80 93 d1 01 	sts	0x01D1, r24	; 0x8001d1 <volume>
					EEPROM_write(0x00, volume);
 69e:	60 91 d1 01 	lds	r22, 0x01D1	; 0x8001d1 <volume>
 6a2:	80 e0       	ldi	r24, 0x00	; 0
 6a4:	75 de       	rcall	.-790    	; 0x390 <EEPROM_write>
				}
				volumeSwitchState = 0x01;
 6a6:	81 e0       	ldi	r24, 0x01	; 1
 6a8:	80 93 cb 01 	sts	0x01CB, r24	; 0x8001cb <volumeSwitchState.1838>
 6ac:	03 c0       	rjmp	.+6      	; 0x6b4 <__vector_9+0x82>
			}
		}
		break;
		
		case 0x01:
		if(PINB & (1<<PINB2)){					// clk still low?
 6ae:	22 9b       	sbis	0x04, 2	; 4
			//stay
		}
		else{
			volumeSwitchState = 0x00;
 6b0:	10 92 cb 01 	sts	0x01CB, r1	; 0x8001cb <volumeSwitchState.1838>
		}
		break;
	}
	
}
 6b4:	ff 91       	pop	r31
 6b6:	ef 91       	pop	r30
 6b8:	bf 91       	pop	r27
 6ba:	af 91       	pop	r26
 6bc:	9f 91       	pop	r25
 6be:	8f 91       	pop	r24
 6c0:	7f 91       	pop	r23
 6c2:	6f 91       	pop	r22
 6c4:	5f 91       	pop	r21
 6c6:	4f 91       	pop	r20
 6c8:	3f 91       	pop	r19
 6ca:	2f 91       	pop	r18
 6cc:	0f 90       	pop	r0
 6ce:	0f be       	out	0x3f, r0	; 63
 6d0:	0f 90       	pop	r0
 6d2:	1f 90       	pop	r1
 6d4:	18 95       	reti

000006d6 <convert4bits>:
						0b00001001,
						0b00001000};
						

uint8_t convert4bits(uint8_t input) {
	uint8_t shift = ((input >> 4) & 0b00001111);
 6d6:	82 95       	swap	r24
 6d8:	8f 70       	andi	r24, 0x0F	; 15
	
	return steps[shift] ;
 6da:	e8 2f       	mov	r30, r24
 6dc:	f0 e0       	ldi	r31, 0x00	; 0
 6de:	ec 59       	subi	r30, 0x9C	; 156
 6e0:	fe 4f       	sbci	r31, 0xFE	; 254
}
 6e2:	80 81       	ld	r24, Z
 6e4:	08 95       	ret

000006e6 <convert6bits>:

uint8_t convert6bits(uint8_t input) {
	uint8_t shift = ((input >> 2) & 0x3F);
 6e6:	86 95       	lsr	r24
 6e8:	86 95       	lsr	r24
	
	if(shift > 0b00101000){
 6ea:	89 32       	cpi	r24, 0x29	; 41
 6ec:	08 f0       	brcs	.+2      	; 0x6f0 <convert6bits+0xa>
		shift = 0b00111000;	//mute
 6ee:	88 e3       	ldi	r24, 0x38	; 56
	}
	
	return shift; 
 6f0:	08 95       	ret

000006f2 <__udivmodqi4>:
 6f2:	99 1b       	sub	r25, r25
 6f4:	79 e0       	ldi	r23, 0x09	; 9
 6f6:	04 c0       	rjmp	.+8      	; 0x700 <__udivmodqi4_ep>

000006f8 <__udivmodqi4_loop>:
 6f8:	99 1f       	adc	r25, r25
 6fa:	96 17       	cp	r25, r22
 6fc:	08 f0       	brcs	.+2      	; 0x700 <__udivmodqi4_ep>
 6fe:	96 1b       	sub	r25, r22

00000700 <__udivmodqi4_ep>:
 700:	88 1f       	adc	r24, r24
 702:	7a 95       	dec	r23
 704:	c9 f7       	brne	.-14     	; 0x6f8 <__udivmodqi4_loop>
 706:	80 95       	com	r24
 708:	08 95       	ret

0000070a <_exit>:
 70a:	f8 94       	cli

0000070c <__stop_program>:
 70c:	ff cf       	rjmp	.-2      	; 0x70c <__stop_program>
